target datalayout = "e-m:e-p270:32:32-p271:32:32-p272:64:64-i64:64-i128:128-f80:128-n8:16:32:64-S128"
target triple = "x86_64-unknown-linux-gnu"

; Function Attrs: mustprogress uwtable
define noundef i64 @_ZN8facebook5velox4util14fromTimeStringEPKcm(ptr noundef %str, i64 noundef %len) #1 {
entry:
  %str.addr = alloca ptr, align 8
  %len.addr = alloca i64, align 8
  %microsSinceMidnight = alloca i64, align 8
  %pos = alloca i64, align 8
  store ptr %str, ptr %str.addr, align 8
  store i64 %len, ptr %len.addr, align 8
  %0 = load ptr, ptr %str.addr, align 8
  %1 = load i64, ptr %len.addr, align 8
  %call = call noundef zeroext i1 @_ZN8facebook5velox4util12_GLOBAL__N_118tryParseTimeStringEPKcmRmRlb(ptr noundef %0, i64 noundef %1, ptr noundef nonnull align 8 dereferenceable(8) %pos, ptr noundef nonnull align 8 dereferenceable(8) %microsSinceMidnight, i1 noundef zeroext true)
  br i1 %call, label %if.end, label %if.then

if.then:                                          ; preds = %entry
  call void @llvm.trap()
  br label %if.end

if.end:                                           ; preds = %if.then, %entry
  %2 = load i64, ptr %microsSinceMidnight, align 8
  ret i64 %2
}